target datalayout = "e-m:e-p270:32:32-p271:32:32-p272:64:64-i64:64-i128:128-f80:128-n8:16:32:64-S128"
target triple = "x86_64-pc-linux-gnu"

; Function Attrs: nounwind uwtable
define i32 @H5LT_get_attribute_disk(i64 noundef %0, ptr noundef %1, ptr noundef %2) #0 {
  %4 = alloca i32, align 4
  %5 = alloca i64, align 8
  %6 = alloca ptr, align 8
  %7 = alloca ptr, align 8
  %8 = alloca i64, align 8
  %9 = alloca i64, align 8
  %10 = alloca i32, align 4
  store i64 %0, ptr %5, align 8, !tbaa !3
  store ptr %1, ptr %6, align 8, !tbaa !7
  store ptr %2, ptr %7, align 8, !tbaa !14
  call void @llvm.lifetime.start.p0(i64 8, ptr %8) #11
  call void @llvm.lifetime.start.p0(i64 8, ptr %9) #11
  %11 = load i64, ptr %5, align 8, !tbaa !3
  %12 = load ptr, ptr %6, align 8, !tbaa !7
  %13 = call i64 @H5Aopen(i64 noundef %11, ptr noundef %12, i64 noundef 0)
  store i64 %13, ptr %8, align 8, !tbaa !3
  %14 = icmp slt i64 %13, 0
  br i1 %14, label %15, label %16

15:                                               ; preds = %3
  store i32 -1, ptr %4, align 4
  store i32 1, ptr %10, align 4
  br label %44

16:                                               ; preds = %3
  %17 = load i64, ptr %8, align 8, !tbaa !3
  %18 = call i64 @H5Aget_type(i64 noundef %17)
  store i64 %18, ptr %9, align 8, !tbaa !3
  %19 = icmp slt i64 %18, 0
  br i1 %19, label %20, label %21

20:                                               ; preds = %16
  br label %39

21:                                               ; preds = %16
  %22 = load i64, ptr %8, align 8, !tbaa !3
  %23 = load i64, ptr %9, align 8, !tbaa !3
  %24 = load ptr, ptr %7, align 8, !tbaa !14
  %25 = call i32 @H5Aread(i64 noundef %22, i64 noundef %23, ptr noundef %24)
  %26 = icmp slt i32 %25, 0
  br i1 %26, label %27, label %28

27:                                               ; preds = %21
  br label %39

28:                                               ; preds = %21
  %29 = load i64, ptr %9, align 8, !tbaa !3
  %30 = call i32 @H5Tclose(i64 noundef %29)
  %31 = icmp slt i32 %30, 0
  br i1 %31, label %32, label %33

32:                                               ; preds = %28
  br label %39

33:                                               ; preds = %28
  %34 = load i64, ptr %8, align 8, !tbaa !3
  %35 = call i32 @H5Aclose(i64 noundef %34)
  %36 = icmp slt i32 %35, 0
  br i1 %36, label %37, label %38

37:                                               ; preds = %33
  store i32 -1, ptr %4, align 4
  store i32 1, ptr %10, align 4
  br label %44

38:                                               ; preds = %33
  store i32 0, ptr %4, align 4
  store i32 1, ptr %10, align 4
  br label %44

39:                                               ; preds = %32, %27, %20
  %40 = load i64, ptr %9, align 8, !tbaa !3
  %41 = call i32 @H5Tclose(i64 noundef %40)
  %42 = load i64, ptr %8, align 8, !tbaa !3
  %43 = call i32 @H5Aclose(i64 noundef %42)
  store i32 -1, ptr %4, align 4
  store i32 1, ptr %10, align 4
  br label %44

44:                                               ; preds = %39, %38, %37, %15
  call void @llvm.lifetime.end.p0(i64 8, ptr %9) #11
  call void @llvm.lifetime.end.p0(i64 8, ptr %8) #11
  %45 = load i32, ptr %4, align 4
  ret i32 %45
}