; Function Attrs: nounwind uwtable
define range(i32 -1, 1) i32 @H5LT_get_attribute_disk(i64 noundef %0, ptr noundef %1, ptr noundef %2) local_unnamed_addr #0 {
  %4 = tail call i64 @H5Aopen(i64 noundef %0, ptr noundef %1, i64 noundef 0) #20
  %5 = icmp slt i64 %4, 0
  br i1 %5, label %20, label %6

6:                                                ; preds = %3
  %7 = tail call i64 @H5Aget_type(i64 noundef %4) #20
  %8 = icmp slt i64 %7, 0
  br i1 %8, label %17, label %9

9:                                                ; preds = %6
  %10 = tail call i32 @H5Aread(i64 noundef %4, i64 noundef %7, ptr noundef %2) #20
  %11 = icmp slt i32 %10, 0
  br i1 %11, label %17, label %12

12:                                               ; preds = %9
  %13 = tail call i32 @H5Tclose(i64 noundef %7) #20
  %14 = icmp slt i32 %13, 0
  br i1 %14, label %17, label %15

15:                                               ; preds = %12
  %16 = tail call i32 @H5Aclose(i64 noundef %4) #20
  %.lobit = ashr i32 %16, 31
  br label %20

17:                                               ; preds = %12, %9, %6
  %18 = tail call i32 @H5Tclose(i64 noundef %7) #20
  %19 = tail call i32 @H5Aclose(i64 noundef %4) #20
  br label %20

20:                                               ; preds = %15, %3, %17
  %.0 = phi i32 [ -1, %17 ], [ -1, %3 ], [ %.lobit, %15 ]
  ret i32 %.0
}